target datalayout = "e-m:e-p270:32:32-p271:32:32-p272:64:64-i64:64-i128:128-f80:128-n8:16:32:64-S128"
target triple = "x86_64-pc-linux-gnu"

%struct.ParseContext_ = type { %struct.TokenData, i32, %union.SourceSpan, %union.SourceSpan, ptr, %struct.Lexer }
%struct.TokenData = type { ptr, i64, %union.anon.86 }
%union.anon.86 = type { %struct.anon.89 }
%struct.anon.89 = type { %struct.Int128_, i8 }
%struct.Int128_ = type { i64, i64 }
%union.SourceSpan = type { i64 }
%struct.Lexer = type { ptr, ptr, ptr, ptr, i32, i32, ptr, ptr, ptr, %struct.TokenData, %union.SourceSpan, i32, i32 }

@.str.17 = private unnamed_addr constant [36 x i8] c"Names of %ss must be all uppercase.\00", align 1
@.str.18 = private unnamed_addr constant [54 x i8] c"A constant name was expected here, did you forget it?\00", align 1

; Function Attrs: nounwind uwtable
define dso_local zeroext i1 @consume_const_name(ptr noundef %0, ptr noundef %1) #0 {
  %3 = alloca i32, align 4
  %4 = alloca ptr, align 8
  %5 = alloca i32, align 4
  %6 = alloca ptr, align 8
  %7 = alloca i32, align 4
  %8 = alloca i1, align 1
  %9 = alloca ptr, align 8
  %10 = alloca ptr, align 8
  store ptr %0, ptr %9, align 8
  store ptr %1, ptr %10, align 8
  %11 = load ptr, ptr %9, align 8
  store ptr %11, ptr %4, align 8
  store i32 64, ptr %5, align 4
  %12 = load ptr, ptr %4, align 8
  %13 = getelementptr inbounds %struct.ParseContext_, ptr %12, i32 0, i32 1
  %14 = load i32, ptr %13, align 8
  %15 = load i32, ptr %5, align 4
  %16 = icmp eq i32 %14, %15
  br i1 %16, label %35, label %17

17:                                               ; preds = %2
  %18 = load ptr, ptr %9, align 8
  store ptr %18, ptr %6, align 8
  store i32 66, ptr %7, align 4
  %19 = load ptr, ptr %6, align 8
  %20 = getelementptr inbounds %struct.ParseContext_, ptr %19, i32 0, i32 1
  %21 = load i32, ptr %20, align 8
  %22 = load i32, ptr %7, align 4
  %23 = icmp eq i32 %21, %22
  br i1 %23, label %35, label %24

24:                                               ; preds = %17
  %25 = load ptr, ptr %9, align 8
  %26 = getelementptr inbounds %struct.ParseContext_, ptr %25, i32 0, i32 1
  %27 = load i32, ptr %26, align 8
  store i32 %27, ptr %3, align 4
  %28 = load i32, ptr %3, align 4
  %29 = icmp uge i32 %28, 82
  br i1 %29, label %30, label %33

30:                                               ; preds = %24
  %31 = load i32, ptr %3, align 4
  %32 = icmp ule i32 %31, 144
  br label %33

33:                                               ; preds = %30, %24
  %34 = phi i1 [ false, %24 ], [ %32, %30 ]
  br i1 %34, label %35, label %43

35:                                               ; preds = %33, %17, %2
  br label %36

36:                                               ; preds = %35
  %37 = load ptr, ptr %9, align 8
  %38 = getelementptr inbounds %struct.ParseContext_, ptr %37, i32 0, i32 2
  %39 = load ptr, ptr %10, align 8
  %40 = getelementptr inbounds %union.SourceSpan, ptr %38, i32 0, i32 0
  %41 = load i64, ptr %40, align 8
  call void (i64, ptr, ...) @sema_error_at(i64 %41, ptr noundef @.str.17, ptr noundef %39)
  store i1 false, ptr %8, align 1
  br label %46

42:                                               ; No predecessors!
  br label %43

43:                                               ; preds = %42, %33
  %44 = load ptr, ptr %9, align 8
  %45 = call zeroext i1 (ptr, i32, ptr, ...) @consume(ptr noundef %44, i32 noundef 65, ptr noundef @.str.18)
  store i1 %45, ptr %8, align 1
  br label %46

46:                                               ; preds = %43, %36
  %47 = load i1, ptr %8, align 1
  ret i1 %47
}