; Function Attrs: nounwind uwtable
define dso_local zeroext i1 @consume_const_name(ptr noundef %0, ptr noundef %1) local_unnamed_addr #0 {
  %3 = getelementptr inbounds i8, ptr %0, i64 40
  %4 = load i32, ptr %3, align 8
  switch i32 %4, label %5 [
    i32 64, label %8
    i32 66, label %8
  ]

5:                                                ; preds = %2
  %6 = add i32 %4, -82
  %7 = icmp ult i32 %6, 63
  br i1 %7, label %8, label %11

8:                                                ; preds = %2, %2, %5
  %9 = getelementptr inbounds i8, ptr %0, i64 48
  %10 = load i64, ptr %9, align 8
  tail call void (i64, ptr, ...) @sema_error_at(i64 %10, ptr noundef nonnull @.str.17, ptr noundef %1) #8
  br label %13

11:                                               ; preds = %5
  %12 = tail call zeroext i1 (ptr, i32, ptr, ...) @consume(ptr noundef nonnull %0, i32 noundef 65, ptr noundef nonnull @.str.18) #8
  br label %13

13:                                               ; preds = %11, %8
  %.0 = phi i1 [ false, %8 ], [ %12, %11 ]
  ret i1 %.0
}